; ModuleID = 'source-C-CXX/11/1322.cpp'
source_filename = "source-C-CXX/11/1322.cpp"
target datalayout = "e-m:e-p270:32:32-p271:32:32-p272:64:64-i64:64-f80:128-n8:16:32:64-S128"
target triple = "x86_64-pc-linux-gnu"

%"class.std::ios_base::Init" = type { i8 }
%"class.std::basic_istream" = type { i32 (...)**, i64, %"class.std::basic_ios" }
%"class.std::basic_ios" = type { %"class.std::ios_base", %"class.std::basic_ostream"*, i8, i8, %"class.std::basic_streambuf"*, %"class.std::ctype"*, %"class.std::num_put"*, %"class.std::num_get"* }
%"class.std::ios_base" = type { i32 (...)**, i64, i64, i32, i32, i32, %"struct.std::ios_base::_Callback_list"*, %"struct.std::ios_base::_Words", [8 x %"struct.std::ios_base::_Words"], i32, %"struct.std::ios_base::_Words"*, %"class.std::locale" }
%"struct.std::ios_base::_Callback_list" = type { %"struct.std::ios_base::_Callback_list"*, void (i32, %"class.std::ios_base"*, i32)*, i32, i32 }
%"struct.std::ios_base::_Words" = type { i8*, i64 }
%"class.std::locale" = type { %"class.std::locale::_Impl"* }
%"class.std::locale::_Impl" = type { i32, %"class.std::locale::facet"**, i64, %"class.std::locale::facet"**, i8** }
%"class.std::locale::facet" = type <{ i32 (...)**, i32, [4 x i8] }>
%"class.std::basic_ostream" = type { i32 (...)**, %"class.std::basic_ios" }
%"class.std::basic_streambuf" = type { i32 (...)**, i8*, i8*, i8*, i8*, i8*, i8*, %"class.std::locale" }
%"class.std::ctype" = type <{ %"class.std::locale::facet.base", [4 x i8], %struct.__locale_struct*, i8, [7 x i8], i32*, i32*, i16*, i8, [256 x i8], [256 x i8], i8, [6 x i8] }>
%"class.std::locale::facet.base" = type <{ i32 (...)**, i32 }>
%struct.__locale_struct = type { [13 x %struct.__locale_data*], i16*, i32*, i32*, [13 x i8*] }
%struct.__locale_data = type opaque
%"class.std::num_put" = type { %"class.std::locale::facet.base", [4 x i8] }
%"class.std::num_get" = type { %"class.std::locale::facet.base", [4 x i8] }

@_ZStL8__ioinit = internal global %"class.std::ios_base::Init" zeroinitializer, align 1
@__dso_handle = external hidden global i8
@_ZSt3cin = external global %"class.std::basic_istream", align 8
@_ZSt4cout = external global %"class.std::basic_ostream", align 8
@llvm.global_ctors = appending global [1 x { i32, void ()*, i8* }] [{ i32, void ()*, i8* } { i32 65535, void ()* @_GLOBAL__sub_I_1322.cpp, i8* null }]

declare void @_ZNSt8ios_base4InitC1Ev(%"class.std::ios_base::Init"* nonnull align 1 dereferenceable(1)) unnamed_addr #0

; Function Attrs: nounwind
declare void @_ZNSt8ios_base4InitD1Ev(%"class.std::ios_base::Init"* nonnull align 1 dereferenceable(1)) unnamed_addr #1

; Function Attrs: nofree nounwind
declare i32 @__cxa_atexit(void (i8*)*, i8*, i8*) local_unnamed_addr #2

; Function Attrs: mustprogress norecurse sspstrong uwtable
define dso_local i32 @main() local_unnamed_addr #3 {
  %1 = alloca [20 x i32], align 16
  %2 = bitcast [20 x i32]* %1 to i8*
  call void @llvm.lifetime.start.p0i8(i64 80, i8* nonnull %2) #8
  %3 = getelementptr inbounds [20 x i32], [20 x i32]* %1, i64 0, i64 0
  %4 = call nonnull align 8 dereferenceable(16) %"class.std::basic_istream"* @_ZNSirsERi(%"class.std::basic_istream"* nonnull align 8 dereferenceable(16) @_ZSt3cin, i32* nonnull align 4 dereferenceable(4) %3)
  %5 = bitcast %"class.std::basic_istream"* %4 to i8**
  %6 = load i8*, i8** %5, align 8, !tbaa !5
  %7 = getelementptr i8, i8* %6, i64 -24
  %8 = bitcast i8* %7 to i64*
  %9 = load i64, i64* %8, align 8
  %10 = bitcast %"class.std::basic_istream"* %4 to i8*
  %11 = add nsw i64 %9, 32
  %12 = getelementptr inbounds i8, i8* %10, i64 %11
  %13 = bitcast i8* %12 to i32*
  %14 = load i32, i32* %13, align 8, !tbaa !8
  %15 = and i32 %14, 5
  %16 = icmp eq i32 %15, 0
  br i1 %16, label %17, label %138

17:                                               ; preds = %0, %54
  %18 = phi i32* [ %58, %54 ], [ %3, %0 ]
  %19 = phi i32 [ %56, %54 ], [ 0, %0 ]
  %20 = phi i32 [ %55, %54 ], [ 0, %0 ]
  %21 = load i32, i32* %18, align 4, !tbaa !18
  %22 = icmp eq i32 %21, 0
  br i1 %22, label %23, label %72

23:                                               ; preds = %17
  %24 = call nonnull align 8 dereferenceable(8) %"class.std::basic_ostream"* @_ZNSolsEi(%"class.std::basic_ostream"* nonnull align 8 dereferenceable(8) @_ZSt4cout, i32 %19)
  %25 = bitcast %"class.std::basic_ostream"* %24 to i8**
  %26 = load i8*, i8** %25, align 8, !tbaa !5
  %27 = getelementptr i8, i8* %26, i64 -24
  %28 = bitcast i8* %27 to i64*
  %29 = load i64, i64* %28, align 8
  %30 = bitcast %"class.std::basic_ostream"* %24 to i8*
  %31 = add nsw i64 %29, 240
  %32 = getelementptr inbounds i8, i8* %30, i64 %31
  %33 = bitcast i8* %32 to %"class.std::ctype"**
  %34 = load %"class.std::ctype"*, %"class.std::ctype"** %33, align 8, !tbaa !19
  %35 = icmp eq %"class.std::ctype"* %34, null
  br i1 %35, label %36, label %37

36:                                               ; preds = %23
  call void @_ZSt16__throw_bad_castv() #9
  unreachable

37:                                               ; preds = %23
  %38 = getelementptr inbounds %"class.std::ctype", %"class.std::ctype"* %34, i64 0, i32 8
  %39 = load i8, i8* %38, align 8, !tbaa !22
  %40 = icmp eq i8 %39, 0
  br i1 %40, label %44, label %41

41:                                               ; preds = %37
  %42 = getelementptr inbounds %"class.std::ctype", %"class.std::ctype"* %34, i64 0, i32 9, i64 10
  %43 = load i8, i8* %42, align 1, !tbaa !24
  br label %50

44:                                               ; preds = %37
  call void @_ZNKSt5ctypeIcE13_M_widen_initEv(%"class.std::ctype"* nonnull align 8 dereferenceable(570) %34)
  %45 = bitcast %"class.std::ctype"* %34 to i8 (%"class.std::ctype"*, i8)***
  %46 = load i8 (%"class.std::ctype"*, i8)**, i8 (%"class.std::ctype"*, i8)*** %45, align 8, !tbaa !5
  %47 = getelementptr inbounds i8 (%"class.std::ctype"*, i8)*, i8 (%"class.std::ctype"*, i8)** %46, i64 6
  %48 = load i8 (%"class.std::ctype"*, i8)*, i8 (%"class.std::ctype"*, i8)** %47, align 8
  %49 = call signext i8 %48(%"class.std::ctype"* nonnull align 8 dereferenceable(570) %34, i8 signext 10)
  br label %50

50:                                               ; preds = %41, %44
  %51 = phi i8 [ %43, %41 ], [ %49, %44 ]
  %52 = call nonnull align 8 dereferenceable(8) %"class.std::basic_ostream"* @_ZNSo3putEc(%"class.std::basic_ostream"* nonnull align 8 dereferenceable(8) %24, i8 signext %51)
  %53 = call nonnull align 8 dereferenceable(8) %"class.std::basic_ostream"* @_ZNSo5flushEv(%"class.std::basic_ostream"* nonnull align 8 dereferenceable(8) %52)
  br label %54

54:                                               ; preds = %50, %135
  %55 = phi i32 [ 0, %50 ], [ %137, %135 ]
  %56 = phi i32 [ 0, %50 ], [ %136, %135 ]
  %57 = sext i32 %55 to i64
  %58 = getelementptr inbounds [20 x i32], [20 x i32]* %1, i64 0, i64 %57
  %59 = call nonnull align 8 dereferenceable(16) %"class.std::basic_istream"* @_ZNSirsERi(%"class.std::basic_istream"* nonnull align 8 dereferenceable(16) @_ZSt3cin, i32* nonnull align 4 dereferenceable(4) %58)
  %60 = bitcast %"class.std::basic_istream"* %59 to i8**
  %61 = load i8*, i8** %60, align 8, !tbaa !5
  %62 = getelementptr i8, i8* %61, i64 -24
  %63 = bitcast i8* %62 to i64*
  %64 = load i64, i64* %63, align 8
  %65 = bitcast %"class.std::basic_istream"* %59 to i8*
  %66 = add nsw i64 %64, 32
  %67 = getelementptr inbounds i8, i8* %65, i64 %66
  %68 = bitcast i8* %67 to i32*
  %69 = load i32, i32* %68, align 8, !tbaa !8
  %70 = and i32 %69, 5
  %71 = icmp eq i32 %70, 0
  br i1 %71, label %17, label %138, !llvm.loop !25

72:                                               ; preds = %17
  %73 = icmp eq i32 %20, 0
  br i1 %73, label %135, label %74

74:                                               ; preds = %72
  %75 = shl nsw i32 %21, 1
  %76 = icmp sgt i32 %20, 0
  br i1 %76, label %77, label %135

77:                                               ; preds = %74
  %78 = zext i32 %20 to i64
  %79 = icmp ult i32 %20, 8
  br i1 %79, label %119, label %80

80:                                               ; preds = %77
  %81 = and i64 %78, 4294967288
  %82 = insertelement <4 x i32> <i32 poison, i32 0, i32 0, i32 0>, i32 %19, i32 0
  %83 = insertelement <4 x i32> poison, i32 %75, i32 0
  %84 = shufflevector <4 x i32> %83, <4 x i32> poison, <4 x i32> zeroinitializer
  %85 = insertelement <4 x i32> poison, i32 %75, i32 0
  %86 = shufflevector <4 x i32> %85, <4 x i32> poison, <4 x i32> zeroinitializer
  %87 = insertelement <4 x i32> poison, i32 %21, i32 0
  %88 = shufflevector <4 x i32> %87, <4 x i32> poison, <4 x i32> zeroinitializer
  %89 = insertelement <4 x i32> poison, i32 %21, i32 0
  %90 = shufflevector <4 x i32> %89, <4 x i32> poison, <4 x i32> zeroinitializer
  br label %91

91:                                               ; preds = %91, %80
  %92 = phi i64 [ 0, %80 ], [ %113, %91 ]
  %93 = phi <4 x i32> [ %82, %80 ], [ %111, %91 ]
  %94 = phi <4 x i32> [ zeroinitializer, %80 ], [ %112, %91 ]
  %95 = getelementptr inbounds [20 x i32], [20 x i32]* %1, i64 0, i64 %92
  %96 = bitcast i32* %95 to <4 x i32>*
  %97 = load <4 x i32>, <4 x i32>* %96, align 16, !tbaa !18
  %98 = getelementptr inbounds i32, i32* %95, i64 4
  %99 = bitcast i32* %98 to <4 x i32>*
  %100 = load <4 x i32>, <4 x i32>* %99, align 16, !tbaa !18
  %101 = icmp eq <4 x i32> %97, %84
  %102 = icmp eq <4 x i32> %100, %86
  %103 = shl nsw <4 x i32> %97, <i32 1, i32 1, i32 1, i32 1>
  %104 = shl nsw <4 x i32> %100, <i32 1, i32 1, i32 1, i32 1>
  %105 = icmp eq <4 x i32> %88, %103
  %106 = icmp eq <4 x i32> %90, %104
  %107 = select <4 x i1> %101, <4 x i1> <i1 true, i1 true, i1 true, i1 true>, <4 x i1> %105
  %108 = select <4 x i1> %102, <4 x i1> <i1 true, i1 true, i1 true, i1 true>, <4 x i1> %106
  %109 = zext <4 x i1> %107 to <4 x i32>
  %110 = zext <4 x i1> %108 to <4 x i32>
  %111 = add <4 x i32> %93, %109
  %112 = add <4 x i32> %94, %110
  %113 = add nuw i64 %92, 8
  %114 = icmp eq i64 %113, %81
  br i1 %114, label %115, label %91, !llvm.loop !27

115:                                              ; preds = %91
  %116 = add <4 x i32> %112, %111
  %117 = call i32 @llvm.vector.reduce.add.v4i32(<4 x i32> %116)
  %118 = icmp eq i64 %81, %78
  br i1 %118, label %135, label %119

119:                                              ; preds = %77, %115
  %120 = phi i64 [ 0, %77 ], [ %81, %115 ]
  %121 = phi i32 [ %19, %77 ], [ %117, %115 ]
  br label %122

122:                                              ; preds = %119, %122
  %123 = phi i64 [ %133, %122 ], [ %120, %119 ]
  %124 = phi i32 [ %132, %122 ], [ %121, %119 ]
  %125 = getelementptr inbounds [20 x i32], [20 x i32]* %1, i64 0, i64 %123
  %126 = load i32, i32* %125, align 4, !tbaa !18
  %127 = icmp eq i32 %126, %75
  %128 = shl nsw i32 %126, 1
  %129 = icmp eq i32 %21, %128
  %130 = select i1 %127, i1 true, i1 %129
  %131 = zext i1 %130 to i32
  %132 = add nsw i32 %124, %131
  %133 = add nuw nsw i64 %123, 1
  %134 = icmp eq i64 %133, %78
  br i1 %134, label %135, label %122, !llvm.loop !29

135:                                              ; preds = %122, %115, %74, %72
  %136 = phi i32 [ %19, %72 ], [ %19, %74 ], [ %117, %115 ], [ %132, %122 ]
  %137 = add nsw i32 %20, 1
  br label %54

138:                                              ; preds = %54, %0
  call void @llvm.lifetime.end.p0i8(i64 80, i8* nonnull %2) #8
  ret i32 0
}

; Function Attrs: argmemonly mustprogress nofree nosync nounwind willreturn
declare void @llvm.lifetime.start.p0i8(i64 immarg, i8* nocapture) #4

declare nonnull align 8 dereferenceable(16) %"class.std::basic_istream"* @_ZNSirsERi(%"class.std::basic_istream"* nonnull align 8 dereferenceable(16), i32* nonnull align 4 dereferenceable(4)) local_unnamed_addr #0

declare nonnull align 8 dereferenceable(8) %"class.std::basic_ostream"* @_ZNSolsEi(%"class.std::basic_ostream"* nonnull align 8 dereferenceable(8), i32) local_unnamed_addr #0

; Function Attrs: argmemonly mustprogress nofree nosync nounwind willreturn
declare void @llvm.lifetime.end.p0i8(i64 immarg, i8* nocapture) #4

declare nonnull align 8 dereferenceable(8) %"class.std::basic_ostream"* @_ZNSo3putEc(%"class.std::basic_ostream"* nonnull align 8 dereferenceable(8), i8 signext) local_unnamed_addr #0

declare nonnull align 8 dereferenceable(8) %"class.std::basic_ostream"* @_ZNSo5flushEv(%"class.std::basic_ostream"* nonnull align 8 dereferenceable(8)) local_unnamed_addr #0

; Function Attrs: noreturn
declare void @_ZSt16__throw_bad_castv() local_unnamed_addr #5

declare void @_ZNKSt5ctypeIcE13_M_widen_initEv(%"class.std::ctype"* nonnull align 8 dereferenceable(570)) local_unnamed_addr #0

; Function Attrs: sspstrong uwtable
define internal void @_GLOBAL__sub_I_1322.cpp() #6 section ".text.startup" {
  tail call void @_ZNSt8ios_base4InitC1Ev(%"class.std::ios_base::Init"* nonnull align 1 dereferenceable(1) @_ZStL8__ioinit)
  %1 = tail call i32 @__cxa_atexit(void (i8*)* bitcast (void (%"class.std::ios_base::Init"*)* @_ZNSt8ios_base4InitD1Ev to void (i8*)*), i8* getelementptr inbounds (%"class.std::ios_base::Init", %"class.std::ios_base::Init"* @_ZStL8__ioinit, i64 0, i32 0), i8* nonnull @__dso_handle) #8
  ret void
}

; Function Attrs: nofree nosync nounwind readnone willreturn
declare i32 @llvm.vector.reduce.add.v4i32(<4 x i32>) #7


!llvm.module.flags = !{!0, !1, !2, !3}
!llvm.ident = !{!4}

!0 = !{i32 1, !"wchar_size", i32 4}
!1 = !{i32 7, !"PIC Level", i32 2}
!2 = !{i32 7, !"PIE Level", i32 2}
!3 = !{i32 7, !"uwtable", i32 1}
!4 = !{!"clang version 13.0.0"}
!5 = !{!6, !6, i64 0}
!6 = !{!"vtable pointer", !7, i64 0}
!7 = !{!"Simple C++ TBAA"}
!8 = !{!9, !13, i64 32}
!9 = !{!"_ZTSSt8ios_base", !10, i64 8, !10, i64 16, !12, i64 24, !13, i64 28, !13, i64 32, !14, i64 40, !15, i64 48, !11, i64 64, !16, i64 192, !14, i64 200, !17, i64 208}
!10 = !{!"long", !11, i64 0}
!11 = !{!"omnipotent char", !7, i64 0}
!12 = !{!"_ZTSSt13_Ios_Fmtflags", !11, i64 0}
!13 = !{!"_ZTSSt12_Ios_Iostate", !11, i64 0}
!14 = !{!"any pointer", !11, i64 0}
!15 = !{!"_ZTSNSt8ios_base6_WordsE", !14, i64 0, !10, i64 8}
!16 = !{!"int", !11, i64 0}
!17 = !{!"_ZTSSt6locale", !14, i64 0}
!18 = !{!16, !16, i64 0}
!19 = !{!20, !14, i64 240}
!20 = !{!"_ZTSSt9basic_iosIcSt11char_traitsIcEE", !14, i64 216, !11, i64 224, !21, i64 225, !14, i64 232, !14, i64 240, !14, i64 248, !14, i64 256}
!21 = !{!"bool", !11, i64 0}
!22 = !{!23, !11, i64 56}
!23 = !{!"_ZTSSt5ctypeIcE", !14, i64 16, !21, i64 24, !14, i64 32, !14, i64 40, !14, i64 48, !11, i64 56, !11, i64 57, !11, i64 313, !11, i64 569}
!24 = !{!11, !11, i64 0}
!25 = distinct !{!25, !26}
!26 = !{!"llvm.loop.mustprogress"}
!27 = distinct !{!27, !26, !28}
!28 = !{!"llvm.loop.isvectorized", i32 1}
!29 = distinct !{!29, !26, !30, !28}
!30 = !{!"llvm.loop.unroll.runtime.disable"}
